target datalayout = "e-m:e-p270:32:32-p271:32:32-p272:64:64-i64:64-i128:128-f80:128-n8:16:32:64-S128"
target triple = "x86_64-pc-linux-gnu"

%struct.strbuf_t = type { ptr, i64, i64, i32, i32, i32 }
%struct.json_config_t = type { [256 x i32], [256 x i8], %struct.strbuf_t, i32, i32, i32, i32, i32, i32, i32, i32, i32 }

@.str.96 = private unnamed_addr constant [35 x i8] c"expected integer between %d and %d\00", align 1

; Function Attrs: nounwind uwtable
define internal i32 @json_integer_option(ptr noundef %0, i32 noundef %1, ptr noundef %2, i32 noundef %3, i32 noundef %4) #0 {
  %6 = alloca ptr, align 8
  %7 = alloca i32, align 4
  %8 = alloca ptr, align 8
  %9 = alloca i32, align 4
  %10 = alloca i32, align 4
  %11 = alloca [64 x i8], align 16
  %12 = alloca i32, align 4
  store ptr %0, ptr %6, align 8, !tbaa !4
  store i32 %1, ptr %7, align 4, !tbaa !9
  store ptr %2, ptr %8, align 8, !tbaa !64
  store i32 %3, ptr %9, align 4, !tbaa !9
  store i32 %4, ptr %10, align 4, !tbaa !9
  call void @llvm.lifetime.start.p0(i64 64, ptr %11) #9
  call void @llvm.lifetime.start.p0(i64 4, ptr %12) #9
  %13 = load ptr, ptr %6, align 8, !tbaa !4
  %14 = load i32, ptr %7, align 4, !tbaa !9
  %15 = call i32 @lua_type(ptr noundef %13, i32 noundef %14)
  %16 = icmp eq i32 %15, 0
  br i1 %16, label %40, label %17

17:                                               ; preds = %5
  %18 = load ptr, ptr %6, align 8, !tbaa !4
  %19 = load i32, ptr %7, align 4, !tbaa !9
  %20 = call i64 @luaL_checkinteger(ptr noundef %18, i32 noundef %19)
  %21 = trunc i64 %20 to i32
  store i32 %21, ptr %12, align 4, !tbaa !9
  %22 = getelementptr inbounds [64 x i8], ptr %11, i64 0, i64 0
  %23 = load i32, ptr %9, align 4, !tbaa !9
  %24 = load i32, ptr %10, align 4, !tbaa !9
  %25 = call i32 (ptr, i64, ptr, ...) @snprintf(ptr noundef %22, i64 noundef 64, ptr noundef @.str.96, i32 noundef %23, i32 noundef %24) #9
  %26 = load i32, ptr %9, align 4, !tbaa !9
  %27 = load i32, ptr %12, align 4, !tbaa !9
  %28 = icmp sle i32 %26, %27
  br i1 %28, label %29, label %33

29:                                               ; preds = %17
  %30 = load i32, ptr %12, align 4, !tbaa !9
  %31 = load i32, ptr %10, align 4, !tbaa !9
  %32 = icmp sle i32 %30, %31
  br i1 %32, label %37, label %33

33:                                               ; preds = %29, %17
  %34 = load ptr, ptr %6, align 8, !tbaa !4
  %35 = getelementptr inbounds [64 x i8], ptr %11, i64 0, i64 0
  %36 = call i32 @luaL_argerror(ptr noundef %34, i32 noundef 1, ptr noundef %35)
  br label %37

37:                                               ; preds = %33, %29
  %38 = load i32, ptr %12, align 4, !tbaa !9
  %39 = load ptr, ptr %8, align 8, !tbaa !64
  store i32 %38, ptr %39, align 4, !tbaa !9
  br label %40

40:                                               ; preds = %37, %5
  %41 = load ptr, ptr %6, align 8, !tbaa !4
  %42 = load ptr, ptr %8, align 8, !tbaa !64
  %43 = load i32, ptr %42, align 4, !tbaa !9
  %44 = sext i32 %43 to i64
  call void @lua_pushinteger(ptr noundef %41, i64 noundef %44)
  call void @llvm.lifetime.end.p0(i64 4, ptr %12) #9
  call void @llvm.lifetime.end.p0(i64 64, ptr %11) #9
  ret i32 1
}

; Function Attrs: nounwind uwtable
define internal i32 @json_cfg_decode_max_depth(ptr noundef %0) #0 {
  %2 = alloca ptr, align 8
  %3 = alloca ptr, align 8
  store ptr %0, ptr %2, align 8, !tbaa !4
  call void @llvm.lifetime.start.p0(i64 8, ptr %3) #9
  %4 = load ptr, ptr %2, align 8, !tbaa !4
  %5 = call ptr @json_arg_init(ptr noundef %4, i32 noundef 1)
  store ptr %5, ptr %3, align 8, !tbaa !15
  %6 = load ptr, ptr %2, align 8, !tbaa !4
  %7 = load ptr, ptr %3, align 8, !tbaa !15
  %8 = getelementptr inbounds nuw %struct.json_config_t, ptr %7, i32 0, i32 11
  %9 = call i32 @json_integer_option(ptr noundef %6, i32 noundef 1, ptr noundef %8, i32 noundef 1, i32 noundef 2147483647)
  call void @llvm.lifetime.end.p0(i64 8, ptr %3) #9
  ret i32 %9
}